target datalayout = "e-m:e-p270:32:32-p271:32:32-p272:64:64-i64:64-i128:128-f80:128-n8:16:32:64-S128"
target triple = "x86_64-unknown-linux-gnu"

%"class.cvc5::internal::EnvObj" = type { ptr, ptr }
%"class.cvc5::internal::theory::arrays::TheoryArrays::TheoryArraysDecisionStrategy" = type { %"class.cvc5::internal::theory::DecisionStrategy", ptr }
%"class.cvc5::internal::theory::DecisionStrategy" = type { %"class.cvc5::internal::EnvObj" }

; Function Attrs: mustprogress uwtable
define linkonce_odr hidden void @_ZN4cvc58internal6theory16DecisionStrategyC2ERNS0_3EnvE(ptr noundef nonnull align 8 dereferenceable(16) %this, ptr noundef nonnull align 8 dereferenceable(576) %env) unnamed_addr #4 comdat align 2 {
entry:
  %this.addr = alloca ptr, align 8
  %env.addr = alloca ptr, align 8
  store ptr %this, ptr %this.addr, align 8
  store ptr %env, ptr %env.addr, align 8
  %this1 = load ptr, ptr %this.addr, align 8
  %0 = load ptr, ptr %env.addr, align 8
  call void @_ZN4cvc58internal6EnvObjC2ERNS0_3EnvE(ptr noundef nonnull align 8 dereferenceable(16) %this1, ptr noundef nonnull align 8 dereferenceable(576) %0)
  store ptr getelementptr inbounds ({ [7 x ptr] }, ptr @_ZTVN4cvc58internal6theory16DecisionStrategyE, i32 0, i32 0, i32 2), ptr %this1, align 8
  ret void
}

; Function Attrs: mustprogress uwtable
define hidden void @_ZN4cvc58internal6theory6arrays12TheoryArrays28TheoryArraysDecisionStrategyC2EPS3_(ptr noundef nonnull align 8 dereferenceable(24) %this, ptr noundef %ta) unnamed_addr #4 align 2 {
entry:
  %this.addr = alloca ptr, align 8
  %ta.addr = alloca ptr, align 8
  store ptr %this, ptr %this.addr, align 8
  store ptr %ta, ptr %ta.addr, align 8
  %this1 = load ptr, ptr %this.addr, align 8
  %0 = load ptr, ptr %ta.addr, align 8
  %d_env = getelementptr inbounds %"class.cvc5::internal::EnvObj", ptr %0, i32 0, i32 1
  %1 = load ptr, ptr %d_env, align 8
  call void @_ZN4cvc58internal6theory16DecisionStrategyC2ERNS0_3EnvE(ptr noundef nonnull align 8 dereferenceable(16) %this1, ptr noundef nonnull align 8 dereferenceable(576) %1)
  store ptr getelementptr inbounds ({ [7 x ptr] }, ptr @_ZTVN4cvc58internal6theory6arrays12TheoryArrays28TheoryArraysDecisionStrategyE, i32 0, i32 0, i32 2), ptr %this1, align 8
  %d_ta = getelementptr inbounds %"class.cvc5::internal::theory::arrays::TheoryArrays::TheoryArraysDecisionStrategy", ptr %this1, i32 0, i32 1
  %2 = load ptr, ptr %ta.addr, align 8
  store ptr %2, ptr %d_ta, align 8
  ret void
}