; Function Attrs: mustprogress uwtable
define hidden void @_ZN4cvc58internal6theory6arrays12TheoryArrays28TheoryArraysDecisionStrategyC2EPS3_(ptr noundef nonnull align 8 dereferenceable(24) %this, ptr noundef %ta) unnamed_addr #3 align 2 {
entry:
  %d_env = getelementptr inbounds i8, ptr %ta, i64 8
  %0 = load ptr, ptr %d_env, align 8
  tail call void @_ZN4cvc58internal6EnvObjC2ERNS0_3EnvE(ptr noundef nonnull align 8 dereferenceable(16) %this, ptr noundef nonnull align 8 dereferenceable(576) %0)
  store ptr getelementptr inbounds ({ [7 x ptr] }, ptr @_ZTVN4cvc58internal6theory6arrays12TheoryArrays28TheoryArraysDecisionStrategyE, i64 0, i32 0, i64 2), ptr %this, align 8
  %d_ta = getelementptr inbounds i8, ptr %this, i64 16
  store ptr %ta, ptr %d_ta, align 8
  ret void
}